((dp1
I100
(lp2
(F0.75390625
I3
tp3
a(F0.66015625
I3
tp4
a(F0.76171875
I3
tp5
a(F0.62109375
I3
tp6
a(F0.69140625
I3
tp7
a(F0.66796875
I3
tp8
a(F0.61328125
I3
tp9
a(F0.73046875
I3
tp10
a(F0.62109375
I3
tp11
a(F0.70703125
I3
tp12
a(F0.66796875
I3
tp13
a(F0.66015625
I3
tp14
a(F0.66015625
I3
tp15
a(F0.65234375
I3
tp16
a(F0.68359375
I3
tp17
a(F0.68359375
I3
tp18
a(F0.61328125
I3
tp19
a(F0.65234375
I3
tp20
a(F0.69140625
I3
tp21
a(F0.69140625
I3
tp22
a(F0.69140625
I3
tp23
a(F0.70703125
I3
tp24
a(F0.67578125
I3
tp25
a(F0.69921875
I3
tp26
a(F0.66015625
I3
tp27
a(F0.66796875
I3
tp28
a(F0.75390625
I3
tp29
a(F0.68359375
I3
tp30
a(F0.62109375
I3
tp31
a(F0.75390625
I3
tp32
a(F0.62109375
I3
tp33
a(F0.66796875
I3
tp34
a(F0.70703125
I3
tp35
a(F0.68359375
I3
tp36
a(F0.69140625
I3
tp37
a(F0.70703125
I3
tp38
a(F0.65234375
I3
tp39
a(F0.68359375
I3
tp40
a(F0.68359375
I3
tp41
a(F0.72265625
I3
tp42
a(F0.62109375
I3
tp43
a(F0.66796875
I3
tp44
a(F0.69140625
I3
tp45
a(F0.69140625
I3
tp46
a(F0.64453125
I3
tp47
a(F0.62109375
I3
tp48
a(F0.69140625
I3
tp49
a(F0.65234375
I3
tp50
a(F0.72265625
I3
tp51
a(F0.69140625
I3
tp52
a(F0.51171875
I4
tp53
a(F0.43359375
I4
tp54
a(F0.50390625
I4
tp55
a(F0.49609375
I4
tp56
a(F0.53515625
I4
tp57
a(F0.50390625
I4
tp58
a(F0.48828125
I4
tp59
a(F0.46484375
I4
tp60
a(F0.53515625
I4
tp61
a(F0.48828125
I4
tp62
a(F0.43359375
I4
tp63
a(F0.52734375
I4
tp64
a(F0.48828125
I4
tp65
a(F0.48828125
I4
tp66
a(F0.44921875
I4
tp67
a(F0.49609375
I4
tp68
a(F0.45703125
I4
tp69
a(F0.46484375
I4
tp70
a(F0.50390625
I4
tp71
a(F0.51171875
I4
tp72
a(F0.58203125
I4
tp73
a(F0.48046875
I4
tp74
a(F0.53515625
I4
tp75
a(F0.48046875
I4
tp76
a(F0.55078125
I4
tp77
a(F0.51953125
I4
tp78
a(F0.48046875
I4
tp79
a(F0.50390625
I4
tp80
a(F0.52734375
I4
tp81
a(F0.46484375
I4
tp82
a(F0.49609375
I4
tp83
a(F0.48828125
I4
tp84
a(F0.51953125
I4
tp85
a(F0.48046875
I4
tp86
a(F0.51171875
I4
tp87
a(F0.56640625
I4
tp88
a(F0.48828125
I4
tp89
a(F0.48046875
I4
tp90
a(F0.51171875
I4
tp91
a(F0.57421875
I4
tp92
a(F0.52734375
I4
tp93
a(F0.51171875
I4
tp94
a(F0.48828125
I4
tp95
a(F0.49609375
I4
tp96
a(F0.51953125
I4
tp97
a(F0.53515625
I4
tp98
a(F0.62890625
I4
tp99
a(F0.51953125
I4
tp100
a(F0.49609375
I4
tp101
a(F0.49609375
I4
tp102
a(F0.38671875
I5
tp103
a(F0.43359375
I5
tp104
a(F0.41015625
I5
tp105
a(F0.44140625
I5
tp106
a(F0.44140625
I5
tp107
a(F0.38671875
I5
tp108
a(F0.36328125
I5
tp109
a(F0.37109375
I5
tp110
a(F0.35546875
I5
tp111
a(F0.43359375
I5
tp112
a(F0.36328125
I5
tp113
a(F0.37109375
I5
tp114
a(F0.43359375
I5
tp115
a(F0.44921875
I5
tp116
a(F0.36328125
I5
tp117
a(F0.37890625
I5
tp118
a(F0.41015625
I5
tp119
a(F0.35546875
I5
tp120
a(F0.41015625
I5
tp121
a(F0.42578125
I5
tp122
a(F0.36328125
I5
tp123
a(F0.41015625
I5
tp124
a(F0.41796875
I5
tp125
a(F0.41796875
I5
tp126
a(F0.44140625
I5
tp127
a(F0.41796875
I5
tp128
a(F0.36328125
I5
tp129
a(F0.37109375
I5
tp130
a(F0.44140625
I5
tp131
a(F0.40234375
I5
tp132
a(F0.41015625
I5
tp133
a(F0.37109375
I5
tp134
a(F0.37109375
I5
tp135
a(F0.44140625
I5
tp136
a(F0.50390625
I5
tp137
a(F0.41796875
I5
tp138
a(F0.37109375
I5
tp139
a(F0.40234375
I5
tp140
a(F0.40234375
I5
tp141
a(F0.37109375
I5
tp142
a(F0.42578125
I5
tp143
a(F0.37109375
I5
tp144
a(F0.50390625
I5
tp145
a(F0.40234375
I5
tp146
a(F0.39453125
I5
tp147
a(F0.43359375
I5
tp148
a(F0.40234375
I5
tp149
a(F0.41015625
I5
tp150
a(F0.38671875
I5
tp151
a(F0.38671875
I5
tp152
a(F0.31640625
I6
tp153
a(F0.30859375
I6
tp154
a(F0.32421875
I6
tp155
a(F0.30078125
I6
tp156
a(F0.34765625
I6
tp157
a(F0.30078125
I6
tp158
a(F0.37890625
I6
tp159
a(F0.32421875
I6
tp160
a(F0.30859375
I6
tp161
a(F0.33203125
I6
tp162
a(F0.32421875
I6
tp163
a(F0.30859375
I6
tp164
a(F0.32421875
I6
tp165
a(F0.30859375
I6
tp166
a(F0.32421875
I6
tp167
a(F0.30859375
I6
tp168
a(F0.33984375
I6
tp169
a(F0.31640625
I6
tp170
a(F0.27734375
I6
tp171
a(F0.34765625
I6
tp172
a(F0.30859375
I6
tp173
a(F0.30078125
I6
tp174
a(F0.35546875
I6
tp175
a(F0.30859375
I6
tp176
a(F0.34765625
I6
tp177
a(F0.34765625
I6
tp178
a(F0.33203125
I6
tp179
a(F0.32421875
I6
tp180
a(F0.34765625
I6
tp181
a(F0.37890625
I6
tp182
a(F0.30859375
I6
tp183
a(F0.36328125
I6
tp184
a(F0.30859375
I6
tp185
a(F0.34765625
I6
tp186
a(F0.35546875
I6
tp187
a(F0.32421875
I6
tp188
a(F0.30859375
I6
tp189
a(F0.37890625
I6
tp190
a(F0.30078125
I6
tp191
a(F0.37890625
I6
tp192
a(F0.35546875
I6
tp193
a(F0.32421875
I6
tp194
a(F0.33984375
I6
tp195
a(F0.30859375
I6
tp196
a(F0.33203125
I6
tp197
a(F0.37890625
I6
tp198
a(F0.33203125
I6
tp199
a(F0.33984375
I6
tp200
a(F0.30859375
I6
tp201
a(F0.34765625
I6
tp202
a(F0.27734375
I7
tp203
a(F0.26953125
I7
tp204
a(F0.28515625
I7
tp205
a(F0.24609375
I7
tp206
a(F0.26953125
I7
tp207
a(F0.30078125
I7
tp208
a(F0.24609375
I7
tp209
a(F0.30078125
I7
tp210
a(F0.26953125
I7
tp211
a(F0.27734375
I7
tp212
a(F0.26171875
I7
tp213
a(F0.29296875
I7
tp214
a(F0.26171875
I7
tp215
a(F0.29296875
I7
tp216
a(F0.29296875
I7
tp217
a(F0.28515625
I7
tp218
a(F0.26953125
I7
tp219
a(F0.26953125
I7
tp220
a(F0.28515625
I7
tp221
a(F0.30078125
I7
tp222
a(F0.27734375
I7
tp223
a(F0.27734375
I7
tp224
a(F0.28515625
I7
tp225
a(F0.23828125
I7
tp226
a(F0.26171875
I7
tp227
a(F0.27734375
I7
tp228
a(F0.27734375
I7
tp229
a(F0.26953125
I7
tp230
a(F0.27734375
I7
tp231
a(F0.24609375
I7
tp232
a(F0.24609375
I7
tp233
a(F0.26953125
I7
tp234
a(F0.27734375
I7
tp235
a(F0.25390625
I7
tp236
a(F0.28515625
I7
tp237
a(F0.28515625
I7
tp238
a(F0.28515625
I7
tp239
a(F0.28515625
I7
tp240
a(F0.27734375
I7
tp241
a(F0.28515625
I7
tp242
a(F0.30078125
I7
tp243
a(F0.26953125
I7
tp244
a(F0.27734375
I7
tp245
a(F0.28515625
I7
tp246
a(F0.32421875
I7
tp247
a(F0.26953125
I7
tp248
a(F0.27734375
I7
tp249
a(F0.28515625
I7
tp250
a(F0.27734375
I7
tp251
a(F0.28515625
I7
tp252
a(F0.26953125
I8
tp253
a(F0.23046875
I8
tp254
a(F0.23828125
I8
tp255
a(F0.26953125
I8
tp256
a(F0.23828125
I8
tp257
a(F0.24609375
I8
tp258
a(F0.26171875
I8
tp259
a(F0.23046875
I8
tp260
a(F0.23046875
I8
tp261
a(F0.23046875
I8
tp262
a(F0.25390625
I8
tp263
a(F0.23828125
I8
tp264
a(F0.23046875
I8
tp265
a(F0.22265625
I8
tp266
a(F0.24609375
I8
tp267
a(F0.23046875
I8
tp268
a(F0.24609375
I8
tp269
a(F0.24609375
I8
tp270
a(F0.24609375
I8
tp271
a(F0.25390625
I8
tp272
a(F0.24609375
I8
tp273
a(F0.23828125
I8
tp274
a(F0.23046875
I8
tp275
a(F0.24609375
I8
tp276
a(F0.23046875
I8
tp277
a(F0.23828125
I8
tp278
a(F0.23828125
I8
tp279
a(F0.23828125
I8
tp280
a(F0.24609375
I8
tp281
a(F0.26171875
I8
tp282
a(F0.22265625
I8
tp283
a(F0.24609375
I8
tp284
a(F0.23046875
I8
tp285
a(F0.25390625
I8
tp286
a(F0.26953125
I8
tp287
a(F0.25390625
I8
tp288
a(F0.25390625
I8
tp289
a(F0.24609375
I8
tp290
a(F0.24609375
I8
tp291
a(F0.26171875
I8
tp292
a(F0.25390625
I8
tp293
a(F0.21484375
I8
tp294
a(F0.26953125
I8
tp295
a(F0.23828125
I8
tp296
a(F0.28515625
I8
tp297
a(F0.23046875
I8
tp298
a(F0.23828125
I8
tp299
a(F0.24609375
I8
tp300
a(F0.28515625
I8
tp301
a(F0.23828125
I8
tp302
a(F0.21484375
I9
tp303
a(F0.19921875
I9
tp304
a(F0.22265625
I9
tp305
a(F0.25390625
I9
tp306
a(F0.19921875
I9
tp307
a(F0.19921875
I9
tp308
a(F0.22265625
I9
tp309
a(F0.19140625
I9
tp310
a(F0.21484375
I9
tp311
a(F0.21484375
I9
tp312
a(F0.20703125
I9
tp313
a(F0.19921875
I9
tp314
a(F0.20703125
I9
tp315
a(F0.22265625
I9
tp316
a(F0.21484375
I9
tp317
a(F0.21484375
I9
tp318
a(F0.19921875
I9
tp319
a(F0.23046875
I9
tp320
a(F0.20703125
I9
tp321
a(F0.18359375
I9
tp322
a(F0.23046875
I9
tp323
a(F0.21484375
I9
tp324
a(F0.22265625
I9
tp325
a(F0.21484375
I9
tp326
a(F0.20703125
I9
tp327
a(F0.22265625
I9
tp328
a(F0.22265625
I9
tp329
a(F0.19921875
I9
tp330
a(F0.21484375
I9
tp331
a(F0.23828125
I9
tp332
a(F0.21484375
I9
tp333
a(F0.21484375
I9
tp334
a(F0.19921875
I9
tp335
a(F0.20703125
I9
tp336
a(F0.21484375
I9
tp337
a(F0.22265625
I9
tp338
a(F0.19921875
I9
tp339
a(F0.20703125
I9
tp340
a(F0.19921875
I9
tp341
a(F0.22265625
I9
tp342
a(F0.19921875
I9
tp343
a(F0.21484375
I9
tp344
a(F0.20703125
I9
tp345
a(F0.19921875
I9
tp346
a(F0.19140625
I9
tp347
a(F0.23046875
I9
tp348
a(F0.21484375
I9
tp349
a(F0.19921875
I9
tp350
a(F0.20703125
I9
tp351
a(F0.18359375
I9
tp352
a(F0.19140625
I10
tp353
a(F0.18359375
I10
tp354
a(F0.19140625
I10
tp355
a(F0.19140625
I10
tp356
a(F0.18359375
I10
tp357
a(F0.19921875
I10
tp358
a(F0.20703125
I10
tp359
a(F0.18359375
I10
tp360
a(F0.19140625
I10
tp361
a(F0.19921875
I10
tp362
a(F0.18359375
I10
tp363
a(F0.17578125
I10
tp364
a(F0.19921875
I10
tp365
a(F0.19140625
I10
tp366
a(F0.20703125
I10
tp367
a(F0.19140625
I10
tp368
a(F0.19921875
I10
tp369
a(F0.18359375
I10
tp370
a(F0.18359375
I10
tp371
a(F0.18359375
I10
tp372
a(F0.19140625
I10
tp373
a(F0.18359375
I10
tp374
a(F0.16796875
I10
tp375
a(F0.19140625
I10
tp376
a(F0.19921875
I10
tp377
a(F0.18359375
I10
tp378
a(F0.17578125
I10
tp379
a(F0.18359375
I10
tp380
a(F0.20703125
I10
tp381
a(F0.18359375
I10
tp382
a(F0.20703125
I10
tp383
a(F0.20703125
I10
tp384
a(F0.17578125
I10
tp385
a(F0.19921875
I10
tp386
a(F0.19921875
I10
tp387
a(F0.18359375
I10
tp388
a(F0.19921875
I10
tp389
a(F0.18359375
I10
tp390
a(F0.18359375
I10
tp391
a(F0.16796875
I10
tp392
a(F0.18359375
I10
tp393
a(F0.19140625
I10
tp394
a(F0.18359375
I10
tp395
a(F0.19921875
I10
tp396
a(F0.17578125
I10
tp397
a(F0.18359375
I10
tp398
a(F0.19140625
I10
tp399
a(F0.19140625
I10
tp400
a(F0.19140625
I10
tp401
a(F0.19140625
I10
tp402
a(F0.12109375
I15
tp403
a(F0.12890625
I15
tp404
a(F0.10546875
I15
tp405
a(F0.12890625
I15
tp406
a(F0.12890625
I15
tp407
a(F0.11328125
I15
tp408
a(F0.12109375
I15
tp409
a(F0.12109375
I15
tp410
a(F0.11328125
I15
tp411
a(F0.11328125
I15
tp412
a(F0.12109375
I15
tp413
a(F0.11328125
I15
tp414
a(F0.12109375
I15
tp415
a(F0.12109375
I15
tp416
a(F0.12890625
I15
tp417
a(F0.12109375
I15
tp418
a(F0.12109375
I15
tp419
a(F0.12890625
I15
tp420
a(F0.12109375
I15
tp421
a(F0.12109375
I15
tp422
a(F0.12109375
I15
tp423
a(F0.11328125
I15
tp424
a(F0.12109375
I15
tp425
a(F0.10546875
I15
tp426
a(F0.12109375
I15
tp427
a(F0.11328125
I15
tp428
a(F0.12109375
I15
tp429
a(F0.12890625
I15
tp430
a(F0.12890625
I15
tp431
a(F0.13671875
I15
tp432
a(F0.11328125
I15
tp433
a(F0.12890625
I15
tp434
a(F0.12890625
I15
tp435
a(F0.12109375
I15
tp436
a(F0.12890625
I15
tp437
a(F0.11328125
I15
tp438
a(F0.11328125
I15
tp439
a(F0.12109375
I15
tp440
a(F0.12109375
I15
tp441
a(F0.11328125
I15
tp442
a(F0.12890625
I15
tp443
a(F0.12109375
I15
tp444
a(F0.12109375
I15
tp445
a(F0.12109375
I15
tp446
a(F0.12109375
I15
tp447
a(F0.12890625
I15
tp448
a(F0.10546875
I15
tp449
a(F0.12109375
I15
tp450
a(F0.12890625
I15
tp451
a(F0.12890625
I15
tp452
a(F0.08203125
I20
tp453
a(F0.08203125
I20
tp454
a(F0.08203125
I20
tp455
a(F0.08203125
I20
tp456
a(F0.08203125
I20
tp457
a(F0.08203125
I20
tp458
a(F0.08203125
I20
tp459
a(F0.08984375
I20
tp460
a(F0.08203125
I20
tp461
a(F0.08984375
I20
tp462
a(F0.08984375
I20
tp463
a(F0.08984375
I20
tp464
a(F0.08984375
I20
tp465
a(F0.08203125
I20
tp466
a(F0.08203125
I20
tp467
a(F0.08984375
I20
tp468
a(F0.08203125
I20
tp469
a(F0.08203125
I20
tp470
a(F0.07421875
I20
tp471
a(F0.08203125
I20
tp472
a(F0.08984375
I20
tp473
a(F0.09765625
I20
tp474
a(F0.08203125
I20
tp475
a(F0.07421875
I20
tp476
a(F0.08203125
I20
tp477
a(F0.08203125
I20
tp478
a(F0.08203125
I20
tp479
a(F0.08984375
I20
tp480
a(F0.08984375
I20
tp481
a(F0.08984375
I20
tp482
a(F0.08984375
I20
tp483
a(F0.08984375
I20
tp484
a(F0.07421875
I20
tp485
a(F0.08984375
I20
tp486
a(F0.08984375
I20
tp487
a(F0.08203125
I20
tp488
a(F0.08984375
I20
tp489
a(F0.08203125
I20
tp490
a(F0.08203125
I20
tp491
a(F0.08203125
I20
tp492
a(F0.09765625
I20
tp493
a(F0.08203125
I20
tp494
a(F0.08203125
I20
tp495
a(F0.08203125
I20
tp496
a(F0.08984375
I20
tp497
a(F0.08203125
I20
tp498
a(F0.08203125
I20
tp499
a(F0.08984375
I20
tp500
a(F0.08984375
I20
tp501
a(F0.08203125
I20
tp502
a(F0.07421875
I25
tp503
a(F0.05859375
I25
tp504
a(F0.06640625
I25
tp505
a(F0.05859375
I25
tp506
a(F0.06640625
I25
tp507
a(F0.06640625
I25
tp508
a(F0.05859375
I25
tp509
a(F0.06640625
I25
tp510
a(F0.06640625
I25
tp511
a(F0.06640625
I25
tp512
a(F0.06640625
I25
tp513
a(F0.06640625
I25
tp514
a(F0.06640625
I25
tp515
a(F0.06640625
I25
tp516
a(F0.06640625
I25
tp517
a(F0.06640625
I25
tp518
a(F0.06640625
I25
tp519
a(F0.07421875
I25
tp520
a(F0.06640625
I25
tp521
a(F0.06640625
I25
tp522
a(F0.07421875
I25
tp523
a(F0.06640625
I25
tp524
a(F0.06640625
I25
tp525
a(F0.06640625
I25
tp526
a(F0.05859375
I25
tp527
a(F0.05859375
I25
tp528
a(F0.05859375
I25
tp529
a(F0.05859375
I25
tp530
a(F0.06640625
I25
tp531
a(F0.05859375
I25
tp532
a(F0.06640625
I25
tp533
a(F0.06640625
I25
tp534
a(F0.06640625
I25
tp535
a(F0.06640625
I25
tp536
a(F0.06640625
I25
tp537
a(F0.06640625
I25
tp538
a(F0.05859375
I25
tp539
a(F0.06640625
I25
tp540
a(F0.06640625
I25
tp541
a(F0.07421875
I25
tp542
a(F0.05859375
I25
tp543
a(F0.05859375
I25
tp544
a(F0.06640625
I25
tp545
a(F0.06640625
I25
tp546
a(F0.05859375
I25
tp547
a(F0.05859375
I25
tp548
a(F0.06640625
I25
tp549
a(F0.06640625
I25
tp550
a(F0.06640625
I25
tp551
a(F0.06640625
I25
tp552
a(F0.05078125
I30
tp553
a(F0.05859375
I30
tp554
a(F0.05859375
I30
tp555
a(F0.05078125
I30
tp556
a(F0.05078125
I30
tp557
a(F0.05078125
I30
tp558
a(F0.05078125
I30
tp559
a(F0.05859375
I30
tp560
a(F0.05078125
I30
tp561
a(F0.05078125
I30
tp562
a(F0.05078125
I30
tp563
a(F0.04296875
I30
tp564
a(F0.05078125
I30
tp565
a(F0.05078125
I30
tp566
a(F0.05859375
I30
tp567
a(F0.05078125
I30
tp568
a(F0.05078125
I30
tp569
a(F0.05078125
I30
tp570
a(F0.05078125
I30
tp571
a(F0.04296875
I30
tp572
a(F0.05078125
I30
tp573
a(F0.05078125
I30
tp574
a(F0.05078125
I30
tp575
a(F0.04296875
I30
tp576
a(F0.05078125
I30
tp577
a(F0.05078125
I30
tp578
a(F0.05078125
I30
tp579
a(F0.05078125
I30
tp580
a(F0.05078125
I30
tp581
a(F0.05078125
I30
tp582
a(F0.05078125
I30
tp583
a(F0.05078125
I30
tp584
a(F0.05078125
I30
tp585
a(F0.05078125
I30
tp586
a(F0.05078125
I30
tp587
a(F0.05078125
I30
tp588
a(F0.05078125
I30
tp589
a(F0.05078125
I30
tp590
a(F0.05078125
I30
tp591
a(F0.05078125
I30
tp592
a(F0.05078125
I30
tp593
a(F0.05078125
I30
tp594
a(F0.05078125
I30
tp595
a(F0.05078125
I30
tp596
a(F0.05078125
I30
tp597
a(F0.05078125
I30
tp598
a(F0.05078125
I30
tp599
a(F0.05078125
I30
tp600
a(F0.05859375
I30
tp601
a(F0.05078125
I30
tp602
a(F0.04296875
I35
tp603
a(F0.04296875
I35
tp604
a(F0.04296875
I35
tp605
a(F0.04296875
I35
tp606
a(F0.04296875
I35
tp607
a(F0.04296875
I35
tp608
a(F0.04296875
I35
tp609
a(F0.04296875
I35
tp610
a(F0.04296875
I35
tp611
a(F0.04296875
I35
tp612
a(F0.03515625
I35
tp613
a(F0.04296875
I35
tp614
a(F0.04296875
I35
tp615
a(F0.04296875
I35
tp616
a(F0.04296875
I35
tp617
a(F0.04296875
I35
tp618
a(F0.04296875
I35
tp619
a(F0.03515625
I35
tp620
a(F0.03515625
I35
tp621
a(F0.04296875
I35
tp622
a(F0.04296875
I35
tp623
a(F0.04296875
I35
tp624
a(F0.04296875
I35
tp625
a(F0.04296875
I35
tp626
a(F0.04296875
I35
tp627
a(F0.03515625
I35
tp628
a(F0.04296875
I35
tp629
a(F0.04296875
I35
tp630
a(F0.04296875
I35
tp631
a(F0.03515625
I35
tp632
a(F0.03515625
I35
tp633
a(F0.04296875
I35
tp634
a(F0.03515625
I35
tp635
a(F0.04296875
I35
tp636
a(F0.04296875
I35
tp637
a(F0.04296875
I35
tp638
a(F0.04296875
I35
tp639
a(F0.03515625
I35
tp640
a(F0.04296875
I35
tp641
a(F0.04296875
I35
tp642
a(F0.03515625
I35
tp643
a(F0.03515625
I35
tp644
a(F0.04296875
I35
tp645
a(F0.04296875
I35
tp646
a(F0.04296875
I35
tp647
a(F0.03515625
I35
tp648
a(F0.04296875
I35
tp649
a(F0.04296875
I35
tp650
a(F0.04296875
I35
tp651
a(F0.04296875
I35
tp652
a(F0.03515625
I40
tp653
a(F0.02734375
I40
tp654
a(F0.03515625
I40
tp655
a(F0.03515625
I40
tp656
a(F0.03515625
I40
tp657
a(F0.02734375
I40
tp658
a(F0.03515625
I40
tp659
a(F0.03515625
I40
tp660
a(F0.03515625
I40
tp661
a(F0.03515625
I40
tp662
a(F0.03515625
I40
tp663
a(F0.03515625
I40
tp664
a(F0.03515625
I40
tp665
a(F0.03515625
I40
tp666
a(F0.03515625
I40
tp667
a(F0.03515625
I40
tp668
a(F0.02734375
I40
tp669
a(F0.02734375
I40
tp670
a(F0.03515625
I40
tp671
a(F0.03515625
I40
tp672
a(F0.03515625
I40
tp673
a(F0.03515625
I40
tp674
a(F0.03515625
I40
tp675
a(F0.03515625
I40
tp676
a(F0.03515625
I40
tp677
a(F0.02734375
I40
tp678
a(F0.03515625
I40
tp679
a(F0.03515625
I40
tp680
a(F0.03515625
I40
tp681
a(F0.03515625
I40
tp682
a(F0.03515625
I40
tp683
a(F0.03515625
I40
tp684
a(F0.03515625
I40
tp685
a(F0.03515625
I40
tp686
a(F0.03515625
I40
tp687
a(F0.03515625
I40
tp688
a(F0.03515625
I40
tp689
a(F0.03515625
I40
tp690
a(F0.03515625
I40
tp691
a(F0.03515625
I40
tp692
a(F0.03515625
I40
tp693
a(F0.03515625
I40
tp694
a(F0.03515625
I40
tp695
a(F0.03515625
I40
tp696
a(F0.02734375
I40
tp697
a(F0.03515625
I40
tp698
a(F0.03515625
I40
tp699
a(F0.03515625
I40
tp700
a(F0.02734375
I40
tp701
a(F0.03515625
I40
tp702
asI20
(lp703
(F0.69140625
I3
tp704
a(F0.55859375
I3
tp705
a(F0.49609375
I3
tp706
a(F0.48046875
I3
tp707
a(F0.48046875
I3
tp708
a(F0.66796875
I3
tp709
a(F0.51171875
I3
tp710
a(F0.62109375
I3
tp711
a(F0.77734375
I3
tp712
a(F0.63671875
I3
tp713
a(F0.69921875
I3
tp714
a(F0.62890625
I3
tp715
a(F0.49609375
I3
tp716
a(F0.55859375
I3
tp717
a(F0.48828125
I3
tp718
a(F0.58203125
I3
tp719
a(F0.56640625
I3
tp720
a(F0.55859375
I3
tp721
a(F0.71484375
I3
tp722
a(F0.55859375
I3
tp723
a(F0.49609375
I3
tp724
a(F0.61328125
I3
tp725
a(F0.62890625
I3
tp726
a(F0.62109375
I3
tp727
a(F0.63671875
I3
tp728
a(F0.62890625
I3
tp729
a(F0.64453125
I3
tp730
a(F0.49609375
I3
tp731
a(F0.57421875
I3
tp732
a(F0.76953125
I3
tp733
a(F0.69921875
I3
tp734
a(F0.64453125
I3
tp735
a(F0.51171875
I3
tp736
a(F0.55859375
I3
tp737
a(F0.48828125
I3
tp738
a(F0.64453125
I3
tp739
a(F0.56640625
I3
tp740
a(F0.58203125
I3
tp741
a(F0.75390625
I3
tp742
a(F0.48046875
I3
tp743
a(F0.75390625
I3
tp744
a(F0.57421875
I3
tp745
a(F0.49609375
I3
tp746
a(F0.49609375
I3
tp747
a(F0.67578125
I3
tp748
a(F0.65234375
I3
tp749
a(F0.83203125
I3
tp750
a(F0.62890625
I3
tp751
a(F0.64453125
I3
tp752
a(F0.64453125
I3
tp753
a(F0.47265625
I4
tp754
a(F0.50390625
I4
tp755
a(F0.47265625
I4
tp756
a(F0.40234375
I4
tp757
a(F0.53515625
I4
tp758
a(F0.43359375
I4
tp759
a(F0.41015625
I4
tp760
a(F0.51171875
I4
tp761
a(F0.35546875
I4
tp762
a(F0.55078125
I4
tp763
a(F0.51171875
I4
tp764
a(F0.37109375
I4
tp765
a(F0.30859375
I4
tp766
a(F0.42578125
I4
tp767
a(F0.51953125
I4
tp768
a(F0.36328125
I4
tp769
a(F0.39453125
I4
tp770
a(F0.44921875
I4
tp771
a(F0.42578125
I4
tp772
a(F0.42578125
I4
tp773
a(F0.44140625
I4
tp774
a(F0.41796875
I4
tp775
a(F0.50390625
I4
tp776
a(F0.37109375
I4
tp777
a(F0.33984375
I4
tp778
a(F0.50390625
I4
tp779
a(F0.47265625
I4
tp780
a(F0.36328125
I4
tp781
a(F0.59765625
I4
tp782
a(F0.44140625
I4
tp783
a(F0.50390625
I4
tp784
a(F0.41015625
I4
tp785
a(F0.44921875
I4
tp786
a(F0.50390625
I4
tp787
a(F0.41015625
I4
tp788
a(F0.40234375
I4
tp789
a(F0.45703125
I4
tp790
a(F0.45703125
I4
tp791
a(F0.33984375
I4
tp792
a(F0.42578125
I4
tp793
a(F0.37109375
I4
tp794
a(F0.50390625
I4
tp795
a(F0.45703125
I4
tp796
a(F0.48046875
I4
tp797
a(F0.44140625
I4
tp798
a(F0.36328125
I4
tp799
a(F0.37890625
I4
tp800
a(F0.37109375
I4
tp801
a(F0.42578125
I4
tp802
a(F0.75390625
I4
tp803
a(F0.33203125
I5
tp804
a(F0.34765625
I5
tp805
a(F0.50390625
I5
tp806
a(F0.29296875
I5
tp807
a(F0.36328125
I5
tp808
a(F0.38671875
I5
tp809
a(F0.38671875
I5
tp810
a(F0.30078125
I5
tp811
a(F0.37890625
I5
tp812
a(F0.30078125
I5
tp813
a(F0.33203125
I5
tp814
a(F0.34765625
I5
tp815
a(F0.33203125
I5
tp816
a(F0.30859375
I5
tp817
a(F0.24609375
I5
tp818
a(F0.34765625
I5
tp819
a(F0.39453125
I5
tp820
a(F0.30859375
I5
tp821
a(F0.30859375
I5
tp822
a(F0.41015625
I5
tp823
a(F0.28515625
I5
tp824
a(F0.33203125
I5
tp825
a(F0.62890625
I5
tp826
a(F0.39453125
I5
tp827
a(F0.32421875
I5
tp828
a(F0.30859375
I5
tp829
a(F0.37890625
I5
tp830
a(F0.28515625
I5
tp831
a(F0.35546875
I5
tp832
a(F0.37890625
I5
tp833
a(F0.35546875
I5
tp834
a(F0.33203125
I5
tp835
a(F0.30078125
I5
tp836
a(F0.33984375
I5
tp837
a(F0.37890625
I5
tp838
a(F0.38671875
I5
tp839
a(F0.37890625
I5
tp840
a(F0.37890625
I5
tp841
a(F0.31640625
I5
tp842
a(F0.30078125
I5
tp843
a(F0.24609375
I5
tp844
a(F0.34765625
I5
tp845
a(F0.33984375
I5
tp846
a(F0.33203125
I5
tp847
a(F0.40234375
I5
tp848
a(F0.28515625
I5
tp849
a(F0.29296875
I5
tp850
a(F0.37890625
I5
tp851
a(F0.31640625
I5
tp852
a(F0.30859375
I5
tp853
a(F0.24609375
I6
tp854
a(F0.18359375
I6
tp855
a(F0.24609375
I6
tp856
a(F0.23828125
I6
tp857
a(F0.25390625
I6
tp858
a(F0.37890625
I6
tp859
a(F0.23828125
I6
tp860
a(F0.18359375
I6
tp861
a(F0.28515625
I6
tp862
a(F0.23828125
I6
tp863
a(F0.37890625
I6
tp864
a(F0.23828125
I6
tp865
a(F0.26171875
I6
tp866
a(F0.30078125
I6
tp867
a(F0.28515625
I6
tp868
a(F0.22265625
I6
tp869
a(F0.26953125
I6
tp870
a(F0.26171875
I6
tp871
a(F0.26171875
I6
tp872
a(F0.27734375
I6
tp873
a(F0.31640625
I6
tp874
a(F0.30078125
I6
tp875
a(F0.31640625
I6
tp876
a(F0.25390625
I6
tp877
a(F0.31640625
I6
tp878
a(F0.23046875
I6
tp879
a(F0.26953125
I6
tp880
a(F0.29296875
I6
tp881
a(F0.23828125
I6
tp882
a(F0.33203125
I6
tp883
a(F0.25390625
I6
tp884
a(F0.31640625
I6
tp885
a(F0.20703125
I6
tp886
a(F0.21484375
I6
tp887
a(F0.37890625
I6
tp888
a(F0.25390625
I6
tp889
a(F0.30078125
I6
tp890
a(F0.23828125
I6
tp891
a(F0.21484375
I6
tp892
a(F0.28515625
I6
tp893
a(F0.29296875
I6
tp894
a(F0.18359375
I6
tp895
a(F0.23046875
I6
tp896
a(F0.30859375
I6
tp897
a(F0.26171875
I6
tp898
a(F0.31640625
I6
tp899
a(F0.21484375
I6
tp900
a(F0.27734375
I6
tp901
a(F0.31640625
I6
tp902
a(F0.20703125
I6
tp903
a(F0.27734375
I7
tp904
a(F0.17578125
I7
tp905
a(F0.21484375
I7
tp906
a(F0.22265625
I7
tp907
a(F0.30078125
I7
tp908
a(F0.20703125
I7
tp909
a(F0.20703125
I7
tp910
a(F0.17578125
I7
tp911
a(F0.18359375
I7
tp912
a(F0.19921875
I7
tp913
a(F0.18359375
I7
tp914
a(F0.19921875
I7
tp915
a(F0.23828125
I7
tp916
a(F0.26171875
I7
tp917
a(F0.22265625
I7
tp918
a(F0.18359375
I7
tp919
a(F0.25390625
I7
tp920
a(F0.19921875
I7
tp921
a(F0.22265625
I7
tp922
a(F0.16796875
I7
tp923
a(F0.20703125
I7
tp924
a(F0.23828125
I7
tp925
a(F0.18359375
I7
tp926
a(F0.18359375
I7
tp927
a(F0.20703125
I7
tp928
a(F0.18359375
I7
tp929
a(F0.19921875
I7
tp930
a(F0.21484375
I7
tp931
a(F0.18359375
I7
tp932
a(F0.19140625
I7
tp933
a(F0.21484375
I7
tp934
a(F0.28515625
I7
tp935
a(F0.18359375
I7
tp936
a(F0.25390625
I7
tp937
a(F0.22265625
I7
tp938
a(F0.22265625
I7
tp939
a(F0.19140625
I7
tp940
a(F0.17578125
I7
tp941
a(F0.25390625
I7
tp942
a(F0.18359375
I7
tp943
a(F0.26171875
I7
tp944
a(F0.20703125
I7
tp945
a(F0.19140625
I7
tp946
a(F0.22265625
I7
tp947
a(F0.17578125
I7
tp948
a(F0.16796875
I7
tp949
a(F0.20703125
I7
tp950
a(F0.31640625
I7
tp951
a(F0.29296875
I7
tp952
a(F0.21484375
I7
tp953
a(F0.19140625
I8
tp954
a(F0.13671875
I8
tp955
a(F0.19140625
I8
tp956
a(F0.14453125
I8
tp957
a(F0.16796875
I8
tp958
a(F0.19140625
I8
tp959
a(F0.17578125
I8
tp960
a(F0.16796875
I8
tp961
a(F0.15234375
I8
tp962
a(F0.16015625
I8
tp963
a(F0.16796875
I8
tp964
a(F0.16015625
I8
tp965
a(F0.16015625
I8
tp966
a(F0.16015625
I8
tp967
a(F0.16796875
I8
tp968
a(F0.16015625
I8
tp969
a(F0.19140625
I8
tp970
a(F0.19921875
I8
tp971
a(F0.16796875
I8
tp972
a(F0.19921875
I8
tp973
a(F0.13671875
I8
tp974
a(F0.16015625
I8
tp975
a(F0.22265625
I8
tp976
a(F0.16015625
I8
tp977
a(F0.19140625
I8
tp978
a(F0.19140625
I8
tp979
a(F0.18359375
I8
tp980
a(F0.19921875
I8
tp981
a(F0.19921875
I8
tp982
a(F0.17578125
I8
tp983
a(F0.15234375
I8
tp984
a(F0.14453125
I8
tp985
a(F0.15234375
I8
tp986
a(F0.13671875
I8
tp987
a(F0.17578125
I8
tp988
a(F0.19921875
I8
tp989
a(F0.17578125
I8
tp990
a(F0.14453125
I8
tp991
a(F0.16015625
I8
tp992
a(F0.19140625
I8
tp993
a(F0.16796875
I8
tp994
a(F0.15234375
I8
tp995
a(F0.16015625
I8
tp996
a(F0.17578125
I8
tp997
a(F0.16796875
I8
tp998
a(F0.15234375
I8
tp999
a(F0.15234375
I8
tp1000
a(F0.20703125
I8
tp1001
a(F0.15234375
I8
tp1002
a(F0.15234375
I8
tp1003
a(F0.12109375
I9
tp1004
a(F0.16015625
I9
tp1005
a(F0.16015625
I9
tp1006
a(F0.12890625
I9
tp1007
a(F0.14453125
I9
tp1008
a(F0.16015625
I9
tp1009
a(F0.11328125
I9
tp1010
a(F0.16796875
I9
tp1011
a(F0.12109375
I9
tp1012
a(F0.12109375
I9
tp1013
a(F0.11328125
I9
tp1014
a(F0.12109375
I9
tp1015
a(F0.17578125
I9
tp1016
a(F0.12890625
I9
tp1017
a(F0.12109375
I9
tp1018
a(F0.15234375
I9
tp1019
a(F0.12890625
I9
tp1020
a(F0.14453125
I9
tp1021
a(F0.14453125
I9
tp1022
a(F0.10546875
I9
tp1023
a(F0.16015625
I9
tp1024
a(F0.16015625
I9
tp1025
a(F0.16796875
I9
tp1026
a(F0.14453125
I9
tp1027
a(F0.16796875
I9
tp1028
a(F0.12109375
I9
tp1029
a(F0.13671875
I9
tp1030
a(F0.14453125
I9
tp1031
a(F0.12109375
I9
tp1032
a(F0.12890625
I9
tp1033
a(F0.12109375
I9
tp1034
a(F0.19140625
I9
tp1035
a(F0.12890625
I9
tp1036
a(F0.15234375
I9
tp1037
a(F0.16796875
I9
tp1038
a(F0.12109375
I9
tp1039
a(F0.13671875
I9
tp1040
a(F0.10546875
I9
tp1041
a(F0.16015625
I9
tp1042
a(F0.12109375
I9
tp1043
a(F0.12890625
I9
tp1044
a(F0.14453125
I9
tp1045
a(F0.12109375
I9
tp1046
a(F0.16015625
I9
tp1047
a(F0.14453125
I9
tp1048
a(F0.12109375
I9
tp1049
a(F0.11328125
I9
tp1050
a(F0.13671875
I9
tp1051
a(F0.14453125
I9
tp1052
a(F0.12890625
I9
tp1053
a(F0.12890625
I10
tp1054
a(F0.10546875
I10
tp1055
a(F0.10546875
I10
tp1056
a(F0.09765625
I10
tp1057
a(F0.11328125
I10
tp1058
a(F0.10546875
I10
tp1059
a(F0.12890625
I10
tp1060
a(F0.11328125
I10
tp1061
a(F0.08984375
I10
tp1062
a(F0.12109375
I10
tp1063
a(F0.12890625
I10
tp1064
a(F0.13671875
I10
tp1065
a(F0.10546875
I10
tp1066
a(F0.14453125
I10
tp1067
a(F0.11328125
I10
tp1068
a(F0.12890625
I10
tp1069
a(F0.12890625
I10
tp1070
a(F0.12890625
I10
tp1071
a(F0.11328125
I10
tp1072
a(F0.08984375
I10
tp1073
a(F0.14453125
I10
tp1074
a(F0.13671875
I10
tp1075
a(F0.12890625
I10
tp1076
a(F0.12890625
I10
tp1077
a(F0.10546875
I10
tp1078
a(F0.12109375
I10
tp1079
a(F0.10546875
I10
tp1080
a(F0.14453125
I10
tp1081
a(F0.12890625
I10
tp1082
a(F0.09765625
I10
tp1083
a(F0.11328125
I10
tp1084
a(F0.12890625
I10
tp1085
a(F0.10546875
I10
tp1086
a(F0.11328125
I10
tp1087
a(F0.12109375
I10
tp1088
a(F0.10546875
I10
tp1089
a(F0.10546875
I10
tp1090
a(F0.12109375
I10
tp1091
a(F0.12890625
I10
tp1092
a(F0.10546875
I10
tp1093
a(F0.12890625
I10
tp1094
a(F0.11328125
I10
tp1095
a(F0.10546875
I10
tp1096
a(F0.08984375
I10
tp1097
a(F0.09765625
I10
tp1098
a(F0.10546875
I10
tp1099
a(F0.14453125
I10
tp1100
a(F0.08984375
I10
tp1101
a(F0.11328125
I10
tp1102
a(F0.16015625
I10
tp1103
a(F0.03515625
I15
tp1104
a(F0.04296875
I15
tp1105
a(F0.02734375
I15
tp1106
a(F0.04296875
I15
tp1107
a(F0.03515625
I15
tp1108
a(F0.04296875
I15
tp1109
a(F0.04296875
I15
tp1110
a(F0.03515625
I15
tp1111
a(F0.04296875
I15
tp1112
a(F0.04296875
I15
tp1113
a(F0.04296875
I15
tp1114
a(F0.03515625
I15
tp1115
a(F0.04296875
I15
tp1116
a(F0.05078125
I15
tp1117
a(F0.04296875
I15
tp1118
a(F0.05859375
I15
tp1119
a(F0.05078125
I15
tp1120
a(F0.05078125
I15
tp1121
a(F0.04296875
I15
tp1122
a(F0.03515625
I15
tp1123
a(F0.03515625
I15
tp1124
a(F0.04296875
I15
tp1125
a(F0.05078125
I15
tp1126
a(F0.04296875
I15
tp1127
a(F0.04296875
I15
tp1128
a(F0.03515625
I15
tp1129
a(F0.04296875
I15
tp1130
a(F0.04296875
I15
tp1131
a(F0.04296875
I15
tp1132
a(F0.04296875
I15
tp1133
a(F0.05078125
I15
tp1134
a(F0.02734375
I15
tp1135
a(F0.03515625
I15
tp1136
a(F0.04296875
I15
tp1137
a(F0.04296875
I15
tp1138
a(F0.02734375
I15
tp1139
a(F0.04296875
I15
tp1140
a(F0.03515625
I15
tp1141
a(F0.04296875
I15
tp1142
a(F0.04296875
I15
tp1143
a(F0.03515625
I15
tp1144
a(F0.04296875
I15
tp1145
a(F0.04296875
I15
tp1146
a(F0.04296875
I15
tp1147
a(F0.05078125
I15
tp1148
a(F0.04296875
I15
tp1149
a(F0.03515625
I15
tp1150
a(F0.04296875
I15
tp1151
a(F0.04296875
I15
tp1152
a(F0.05078125
I15
tp1153
a(F0.00390625
I20
tp1154
a(F0.00390625
I20
tp1155
a(F0.00390625
I20
tp1156
a(F0.00390625
I20
tp1157
a(F0.00390625
I20
tp1158
a(F0.00390625
I20
tp1159
a(F0.00390625
I20
tp1160
a(F0.00390625
I20
tp1161
a(F0.00390625
I20
tp1162
a(F0.00390625
I20
tp1163
a(F0.00390625
I20
tp1164
a(F0.00390625
I20
tp1165
a(F0.00390625
I20
tp1166
a(F0.00390625
I20
tp1167
a(F0.00390625
I20
tp1168
a(F0.00390625
I20
tp1169
a(F0.00390625
I20
tp1170
a(F0.00390625
I20
tp1171
a(F0.00390625
I20
tp1172
a(F0.00390625
I20
tp1173
a(F0.00390625
I20
tp1174
a(F0.00390625
I20
tp1175
a(F0.00390625
I20
tp1176
a(F0.00390625
I20
tp1177
a(F0.00390625
I20
tp1178
a(F0.00390625
I20
tp1179
a(F0.00390625
I20
tp1180
a(F0.00390625
I20
tp1181
a(F0.00390625
I20
tp1182
a(F0.00390625
I20
tp1183
a(F0.00390625
I20
tp1184
a(F0.00390625
I20
tp1185
a(F0.00390625
I20
tp1186
a(F0.00390625
I20
tp1187
a(F0.00390625
I20
tp1188
a(F0.00390625
I20
tp1189
a(F0.00390625
I20
tp1190
a(F0.00390625
I20
tp1191
a(F0.00390625
I20
tp1192
a(F0.00390625
I20
tp1193
a(F0.00390625
I20
tp1194
a(F0.00390625
I20
tp1195
a(F0.00390625
I20
tp1196
a(F0.00390625
I20
tp1197
a(F0.00390625
I20
tp1198
a(F0.00390625
I20
tp1199
a(F0.00390625
I20
tp1200
a(F0.00390625
I20
tp1201
a(F0.00390625
I20
tp1202
a(F0.00390625
I20
tp1203
a(F0.00390625
I25
tp1204
a(F0.00390625
I25
tp1205
a(F0.00390625
I25
tp1206
a(F0.00390625
I25
tp1207
a(F0.00390625
I25
tp1208
a(F0.00390625
I25
tp1209
a(F0.00390625
I25
tp1210
a(F0.00390625
I25
tp1211
a(F0.00390625
I25
tp1212
a(F0.00390625
I25
tp1213
a(F0.00390625
I25
tp1214
a(F0.00390625
I25
tp1215
a(F0.00390625
I25
tp1216
a(F0.00390625
I25
tp1217
a(F0.00390625
I25
tp1218
a(F0.00390625
I25
tp1219
a(F0.00390625
I25
tp1220
a(F0.00390625
I25
tp1221
a(F0.00390625
I25
tp1222
a(F0.00390625
I25
tp1223
a(F0.00390625
I25
tp1224
a(F0.00390625
I25
tp1225
a(F0.00390625
I25
tp1226
a(F0.00390625
I25
tp1227
a(F0.00390625
I25
tp1228
a(F0.00390625
I25
tp1229
a(F0.00390625
I25
tp1230
a(F0.00390625
I25
tp1231
a(F0.00390625
I25
tp1232
a(F0.00390625
I25
tp1233
a(F0.00390625
I25
tp1234
a(F0.00390625
I25
tp1235
a(F0.00390625
I25
tp1236
a(F0.00390625
I25
tp1237
a(F0.00390625
I25
tp1238
a(F0.00390625
I25
tp1239
a(F0.00390625
I25
tp1240
a(F0.00390625
I25
tp1241
a(F0.00390625
I25
tp1242
a(F0.00390625
I25
tp1243
a(F0.00390625
I25
tp1244
a(F0.00390625
I25
tp1245
a(F0.00390625
I25
tp1246
a(F0.00390625
I25
tp1247
a(F0.00390625
I25
tp1248
a(F0.00390625
I25
tp1249
a(F0.00390625
I25
tp1250
a(F0.00390625
I25
tp1251
a(F0.00390625
I25
tp1252
a(F0.00390625
I25
tp1253
a(F0.00390625
I30
tp1254
a(F0.00390625
I30
tp1255
a(F0.00390625
I30
tp1256
a(F0.00390625
I30
tp1257
a(F0.00390625
I30
tp1258
a(F0.00390625
I30
tp1259
a(F0.00390625
I30
tp1260
a(F0.00390625
I30
tp1261
a(F0.00390625
I30
tp1262
a(F0.00390625
I30
tp1263
a(F0.00390625
I30
tp1264
a(F0.00390625
I30
tp1265
a(F0.00390625
I30
tp1266
a(F0.00390625
I30
tp1267
a(F0.00390625
I30
tp1268
a(F0.00390625
I30
tp1269
a(F0.00390625
I30
tp1270
a(F0.00390625
I30
tp1271
a(F0.00390625
I30
tp1272
a(F0.00390625
I30
tp1273
a(F0.00390625
I30
tp1274
a(F0.00390625
I30
tp1275
a(F0.00390625
I30
tp1276
a(F0.00390625
I30
tp1277
a(F0.00390625
I30
tp1278
a(F0.00390625
I30
tp1279
a(F0.00390625
I30
tp1280
a(F0.00390625
I30
tp1281
a(F0.00390625
I30
tp1282
a(F0.00390625
I30
tp1283
a(F0.00390625
I30
tp1284
a(F0.00390625
I30
tp1285
a(F0.00390625
I30
tp1286
a(F0.00390625
I30
tp1287
a(F0.00390625
I30
tp1288
a(F0.00390625
I30
tp1289
a(F0.00390625
I30
tp1290
a(F0.00390625
I30
tp1291
a(F0.00390625
I30
tp1292
a(F0.00390625
I30
tp1293
a(F0.00390625
I30
tp1294
a(F0.00390625
I30
tp1295
a(F0.00390625
I30
tp1296
a(F0.00390625
I30
tp1297
a(F0.00390625
I30
tp1298
a(F0.00390625
I30
tp1299
a(F0.00390625
I30
tp1300
a(F0.00390625
I30
tp1301
a(F0.00390625
I30
tp1302
a(F0.00390625
I30
tp1303
a(F0.00390625
I35
tp1304
a(F0.00390625
I35
tp1305
a(F0.00390625
I35
tp1306
a(F0.00390625
I35
tp1307
a(F0.00390625
I35
tp1308
a(F0.00390625
I35
tp1309
a(F0.00390625
I35
tp1310
a(F0.00390625
I35
tp1311
a(F0.00390625
I35
tp1312
a(F0.00390625
I35
tp1313
a(F0.00390625
I35
tp1314
a(F0.00390625
I35
tp1315
a(F0.00390625
I35
tp1316
a(F0.00390625
I35
tp1317
a(F0.00390625
I35
tp1318
a(F0.00390625
I35
tp1319
a(F0.00390625
I35
tp1320
a(F0.00390625
I35
tp1321
a(F0.00390625
I35
tp1322
a(F0.00390625
I35
tp1323
a(F0.00390625
I35
tp1324
a(F0.00390625
I35
tp1325
a(F0.00390625
I35
tp1326
a(F0.00390625
I35
tp1327
a(F0.00390625
I35
tp1328
a(F0.00390625
I35
tp1329
a(F0.00390625
I35
tp1330
a(F0.00390625
I35
tp1331
a(F0.00390625
I35
tp1332
a(F0.00390625
I35
tp1333
a(F0.00390625
I35
tp1334
a(F0.00390625
I35
tp1335
a(F0.00390625
I35
tp1336
a(F0.00390625
I35
tp1337
a(F0.00390625
I35
tp1338
a(F0.00390625
I35
tp1339
a(F0.00390625
I35
tp1340
a(F0.00390625
I35
tp1341
a(F0.00390625
I35
tp1342
a(F0.00390625
I35
tp1343
a(F0.00390625
I35
tp1344
a(F0.00390625
I35
tp1345
a(F0.00390625
I35
tp1346
a(F0.00390625
I35
tp1347
a(F0.00390625
I35
tp1348
a(F0.00390625
I35
tp1349
a(F0.00390625
I35
tp1350
a(F0.00390625
I35
tp1351
a(F0.00390625
I35
tp1352
a(F0.00390625
I35
tp1353
a(F0.00390625
I40
tp1354
a(F0.00390625
I40
tp1355
a(F0.00390625
I40
tp1356
a(F0.00390625
I40
tp1357
a(F0.00390625
I40
tp1358
a(F0.00390625
I40
tp1359
a(F0.00390625
I40
tp1360
a(F0.00390625
I40
tp1361
a(F0.00390625
I40
tp1362
a(F0.00390625
I40
tp1363
a(F0.00390625
I40
tp1364
a(F0.00390625
I40
tp1365
a(F0.00390625
I40
tp1366
a(F0.00390625
I40
tp1367
a(F0.00390625
I40
tp1368
a(F0.00390625
I40
tp1369
a(F0.00390625
I40
tp1370
a(F0.00390625
I40
tp1371
a(F0.00390625
I40
tp1372
a(F0.00390625
I40
tp1373
a(F0.00390625
I40
tp1374
a(F0.00390625
I40
tp1375
a(F0.00390625
I40
tp1376
a(F0.00390625
I40
tp1377
a(F0.00390625
I40
tp1378
a(F0.00390625
I40
tp1379
a(F0.00390625
I40
tp1380
a(F0.00390625
I40
tp1381
a(F0.00390625
I40
tp1382
a(F0.00390625
I40
tp1383
a(F0.00390625
I40
tp1384
a(F0.00390625
I40
tp1385
a(F0.00390625
I40
tp1386
a(F0.00390625
I40
tp1387
a(F0.00390625
I40
tp1388
a(F0.00390625
I40
tp1389
a(F0.00390625
I40
tp1390
a(F0.00390625
I40
tp1391
a(F0.00390625
I40
tp1392
a(F0.00390625
I40
tp1393
a(F0.00390625
I40
tp1394
a(F0.00390625
I40
tp1395
a(F0.00390625
I40
tp1396
a(F0.00390625
I40
tp1397
a(F0.00390625
I40
tp1398
a(F0.00390625
I40
tp1399
a(F0.00390625
I40
tp1400
a(F0.00390625
I40
tp1401
a(F0.00390625
I40
tp1402
a(F0.00390625
I40
tp1403
as(dp1404
S'ip'
p1405
F0.01
sS'precision'
p1406
F0.01
sS'range_g'
p1407
(lp1408
I10
aI50
aI100
aI200
asS'invfitness_g'
p1409
I10
sS'host'
p1410
S'Linux|apis|3.2.0-79-generic|#115-Ubuntu SMP Thu Mar 12 14:18:19 UTC 2015|x86_64|x86_64'
p1411
sS'replica'
p1412
I50
sS'dz'
p1413
F0.01
sS'alpha'
p1414
F0.75
sS'thres_r'
p1415
I50
sS'lk_R'
p1416
I1000
sS'c'
I1
sS'g'
I100
sS'b_range'
p1417
(lp1418
I3
aI4
aI5
aI6
aI7
aI8
aI9
aI10
aI15
aI20
aI25
aI30
aI35
aI40
asS'chi'
p1419
I4
sS'k'
F0.29999999999999999
sS'range_ip'
p1420
(lp1421
F0.001
aF0.0050000000000000001
aF0.01
aF0.050000000000000003
aF0.10000000000000001
asS'n'
I5000
sS'mu'
p1422
I0
sS's'
F0.10000000000000001
sS'kmax'
p1423
I10
sS'T_range'
p1424
(lp1425
I20
aI100
asS'time'
p1426
S'Thu Sep 17 23:10:49 2015'
p1427
st.